target datalayout = "e-m:e-p270:32:32-p271:32:32-p272:64:64-i64:64-i128:128-f80:128-n8:16:32:64-S128"
target triple = "x86_64-pc-linux-gnu"

%struct.tr2_tgt = type { ptr, ptr, ptr, ptr, ptr, ptr, ptr, ptr, ptr, ptr, ptr, ptr, ptr, ptr, ptr, ptr, ptr, ptr, ptr, ptr, ptr, ptr, ptr, ptr, ptr, ptr, ptr, ptr, ptr, ptr }

@trace2_enabled = internal global i32 0, align 4
@tr2_tgt_builtins = internal global [4 x ptr] [ptr @tr2_tgt_normal, ptr @tr2_tgt_perf, ptr @tr2_tgt_event, ptr null], align 16

; Function Attrs: nounwind uwtable
define dso_local void @trace2_printf_va_fl(ptr noundef %0, i32 noundef %1, ptr noundef %2, ptr noundef %3) #0 {
  %5 = alloca ptr, align 8
  %6 = alloca i32, align 4
  %7 = alloca ptr, align 8
  %8 = alloca ptr, align 8
  %9 = alloca ptr, align 8
  %10 = alloca i32, align 4
  %11 = alloca i64, align 8
  %12 = alloca i64, align 8
  %13 = alloca i32, align 4
  store ptr %0, ptr %5, align 8, !tbaa !4
  store i32 %1, ptr %6, align 4, !tbaa !9
  store ptr %2, ptr %7, align 8, !tbaa !4
  store ptr %3, ptr %8, align 8, !tbaa !38
  call void @llvm.lifetime.start.p0(i64 8, ptr %9) #9
  call void @llvm.lifetime.start.p0(i64 4, ptr %10) #9
  call void @llvm.lifetime.start.p0(i64 8, ptr %11) #9
  call void @llvm.lifetime.start.p0(i64 8, ptr %12) #9
  %14 = load i32, ptr @trace2_enabled, align 4, !tbaa !9
  %15 = icmp ne i32 %14, 0
  br i1 %15, label %17, label %16

16:                                               ; preds = %4
  store i32 1, ptr %13, align 4
  br label %59

17:                                               ; preds = %4
  %18 = call i64 @getnanotime()
  %19 = udiv i64 %18, 1000
  store i64 %19, ptr %11, align 8, !tbaa !21
  %20 = load i64, ptr %11, align 8, !tbaa !21
  %21 = call i64 @tr2tls_absolute_elapsed(i64 noundef %20)
  store i64 %21, ptr %12, align 8, !tbaa !21
  store i32 0, ptr %10, align 4, !tbaa !9
  %22 = load i32, ptr %10, align 4, !tbaa !9
  %23 = sext i32 %22 to i64
  %24 = getelementptr inbounds [4 x ptr], ptr @tr2_tgt_builtins, i64 0, i64 %23
  %25 = load ptr, ptr %24, align 8, !tbaa !11
  store ptr %25, ptr %9, align 8, !tbaa !11
  br label %26

26:                                               ; preds = %51, %17
  %27 = load ptr, ptr %9, align 8, !tbaa !11
  %28 = icmp ne ptr %27, null
  br i1 %28, label %29, label %58

29:                                               ; preds = %26
  %30 = load ptr, ptr %9, align 8, !tbaa !11
  %31 = getelementptr inbounds nuw %struct.tr2_tgt, ptr %30, i32 0, i32 0
  %32 = load ptr, ptr %31, align 8, !tbaa !13
  %33 = call i32 @tr2_dst_trace_want(ptr noundef %32)
  %34 = icmp ne i32 %33, 0
  br i1 %34, label %35, label %50

35:                                               ; preds = %29
  %36 = load ptr, ptr %9, align 8, !tbaa !11
  %37 = getelementptr inbounds nuw %struct.tr2_tgt, ptr %36, i32 0, i32 27
  %38 = load ptr, ptr %37, align 8, !tbaa !125
  %39 = icmp ne ptr %38, null
  br i1 %39, label %40, label %49

40:                                               ; preds = %35
  %41 = load ptr, ptr %9, align 8, !tbaa !11
  %42 = getelementptr inbounds nuw %struct.tr2_tgt, ptr %41, i32 0, i32 27
  %43 = load ptr, ptr %42, align 8, !tbaa !125
  %44 = load ptr, ptr %5, align 8, !tbaa !4
  %45 = load i32, ptr %6, align 4, !tbaa !9
  %46 = load i64, ptr %12, align 8, !tbaa !21
  %47 = load ptr, ptr %7, align 8, !tbaa !4
  %48 = load ptr, ptr %8, align 8, !tbaa !38
  call void %43(ptr noundef %44, i32 noundef %45, i64 noundef %46, ptr noundef %47, ptr noundef %48)
  br label %49

49:                                               ; preds = %40, %35
  br label %50

50:                                               ; preds = %49, %29
  br label %51

51:                                               ; preds = %50
  %52 = load i32, ptr %10, align 4, !tbaa !9
  %53 = add nsw i32 %52, 1
  store i32 %53, ptr %10, align 4, !tbaa !9
  %54 = load i32, ptr %10, align 4, !tbaa !9
  %55 = sext i32 %54 to i64
  %56 = getelementptr inbounds [4 x ptr], ptr @tr2_tgt_builtins, i64 0, i64 %55
  %57 = load ptr, ptr %56, align 8, !tbaa !11
  store ptr %57, ptr %9, align 8, !tbaa !11
  br label %26, !llvm.loop !126

58:                                               ; preds = %26
  store i32 0, ptr %13, align 4
  br label %59

59:                                               ; preds = %58, %16
  call void @llvm.lifetime.end.p0(i64 8, ptr %12) #9
  call void @llvm.lifetime.end.p0(i64 8, ptr %11) #9
  call void @llvm.lifetime.end.p0(i64 4, ptr %10) #9
  call void @llvm.lifetime.end.p0(i64 8, ptr %9) #9
  %60 = load i32, ptr %13, align 4
  switch i32 %60, label %62 [
    i32 0, label %61
    i32 1, label %61
  ]

61:                                               ; preds = %59, %59
  ret void

62:                                               ; preds = %59
  unreachable
}